target datalayout = "e-m:e-p270:32:32-p271:32:32-p272:64:64-i64:64-i128:128-f80:128-n8:16:32:64-S128"
target triple = "x86_64-pc-linux-gnu"

%struct.curl_mimepart = type { ptr, ptr, i32, i32, ptr, ptr, ptr, ptr, ptr, ptr, ptr, ptr, ptr, ptr, ptr, i64, %struct.mime_state, ptr, %struct.mime_encoder_state, i64 }
%struct.mime_state = type { i32, ptr, i64 }
%struct.mime_encoder_state = type { i64, i64, i64, [256 x i8] }

@.str.34 = private unnamed_addr constant [3 x i8] c"rb\00", align 1

; Function Attrs: nounwind uwtable
define internal i32 @mime_open_file(ptr noundef %0) #0 {
  %2 = alloca i32, align 4
  %3 = alloca ptr, align 8
  store ptr %0, ptr %3, align 8, !tbaa !4
  %4 = load ptr, ptr %3, align 8, !tbaa !4
  %5 = getelementptr inbounds nuw %struct.curl_mimepart, ptr %4, i32 0, i32 9
  %6 = load ptr, ptr %5, align 8, !tbaa !31
  %7 = icmp ne ptr %6, null
  br i1 %7, label %8, label %9

8:                                                ; preds = %1
  store i32 0, ptr %2, align 4
  br label %21

9:                                                ; preds = %1
  %10 = load ptr, ptr %3, align 8, !tbaa !4
  %11 = getelementptr inbounds nuw %struct.curl_mimepart, ptr %10, i32 0, i32 4
  %12 = load ptr, ptr %11, align 8, !tbaa !30
  %13 = call noalias ptr @fopen64(ptr noundef %12, ptr noundef @.str.34)
  %14 = load ptr, ptr %3, align 8, !tbaa !4
  %15 = getelementptr inbounds nuw %struct.curl_mimepart, ptr %14, i32 0, i32 9
  store ptr %13, ptr %15, align 8, !tbaa !31
  %16 = load ptr, ptr %3, align 8, !tbaa !4
  %17 = getelementptr inbounds nuw %struct.curl_mimepart, ptr %16, i32 0, i32 9
  %18 = load ptr, ptr %17, align 8, !tbaa !31
  %19 = icmp ne ptr %18, null
  %20 = select i1 %19, i32 0, i32 -1
  store i32 %20, ptr %2, align 4
  br label %21

21:                                               ; preds = %9, %8
  %22 = load i32, ptr %2, align 4
  ret i32 %22
}

; Function Attrs: nounwind uwtable
define internal i64 @mime_file_read(ptr noundef %0, i64 noundef %1, i64 noundef %2, ptr noundef %3) #0 {
  %5 = alloca i64, align 8
  %6 = alloca ptr, align 8
  %7 = alloca i64, align 8
  %8 = alloca i64, align 8
  %9 = alloca ptr, align 8
  %10 = alloca ptr, align 8
  %11 = alloca i32, align 4
  store ptr %0, ptr %6, align 8, !tbaa !49
  store i64 %1, ptr %7, align 8, !tbaa !50
  store i64 %2, ptr %8, align 8, !tbaa !50
  store ptr %3, ptr %9, align 8, !tbaa !22
  call void @llvm.lifetime.start.p0(i64 8, ptr %10) #8
  %12 = load ptr, ptr %9, align 8, !tbaa !22
  store ptr %12, ptr %10, align 8, !tbaa !4
  %13 = load i64, ptr %8, align 8, !tbaa !50
  %14 = icmp ne i64 %13, 0
  br i1 %14, label %16, label %15

15:                                               ; preds = %4
  store i64 -2, ptr %5, align 8
  store i32 1, ptr %11, align 4
  br label %29

16:                                               ; preds = %4
  %17 = load ptr, ptr %10, align 8, !tbaa !4
  %18 = call i32 @mime_open_file(ptr noundef %17)
  %19 = icmp ne i32 %18, 0
  br i1 %19, label %20, label %21

20:                                               ; preds = %16
  store i64 -1, ptr %5, align 8
  store i32 1, ptr %11, align 4
  br label %29

21:                                               ; preds = %16
  %22 = load ptr, ptr %6, align 8, !tbaa !49
  %23 = load i64, ptr %7, align 8, !tbaa !50
  %24 = load i64, ptr %8, align 8, !tbaa !50
  %25 = load ptr, ptr %10, align 8, !tbaa !4
  %26 = getelementptr inbounds nuw %struct.curl_mimepart, ptr %25, i32 0, i32 9
  %27 = load ptr, ptr %26, align 8, !tbaa !31
  %28 = call i64 @fread(ptr noundef %22, i64 noundef %23, i64 noundef %24, ptr noundef %27)
  store i64 %28, ptr %5, align 8
  store i32 1, ptr %11, align 4
  br label %29

29:                                               ; preds = %21, %20, %15
  call void @llvm.lifetime.end.p0(i64 8, ptr %10) #8
  %30 = load i64, ptr %5, align 8
  ret i64 %30
}