; Function Attrs: nofree nounwind uwtable
define internal noundef i64 @mime_file_read(ptr noundef captures(none) %0, i64 noundef %1, i64 noundef %2, ptr noundef captures(none) %3) #9 {
  %.not = icmp eq i64 %2, 0
  br i1 %.not, label %13, label %5

5:                                                ; preds = %4
  %6 = getelementptr inbounds nuw i8, ptr %3, i64 64
  %7 = load ptr, ptr %6, align 8, !tbaa !21
  %.not.i = icmp eq ptr %7, null
  br i1 %.not.i, label %mime_open_file.exit, label %mime_open_file.exit.thread

mime_open_file.exit:                              ; preds = %5
  %8 = getelementptr inbounds nuw i8, ptr %3, i64 24
  %9 = load ptr, ptr %8, align 8, !tbaa !20
  %10 = tail call noalias ptr @fopen64(ptr noundef %9, ptr noundef nonnull @.str.34)
  store ptr %10, ptr %6, align 8, !tbaa !21
  %.not4.i.not = icmp eq ptr %10, null
  br i1 %.not4.i.not, label %13, label %mime_open_file.exit.thread

mime_open_file.exit.thread:                       ; preds = %5, %mime_open_file.exit
  %11 = phi ptr [ %7, %5 ], [ %10, %mime_open_file.exit ]
  %12 = tail call i64 @fread(ptr noundef %0, i64 noundef %1, i64 noundef %2, ptr noundef nonnull %11)
  br label %13

13:                                               ; preds = %mime_open_file.exit, %4, %mime_open_file.exit.thread
  %.0 = phi i64 [ %12, %mime_open_file.exit.thread ], [ -2, %4 ], [ -1, %mime_open_file.exit ]
  ret i64 %.0
}